; Function Attrs: nounwind uwtable
define ptr @l_Lean_Elab_elabModifiers___at___private_Lean_Elab_Inductive_0__Lean_Elab_Command_inductiveSyntaxToView___spec__2___lambda__2___boxed(ptr noundef %0, ptr noundef %1, ptr noundef %2, ptr noundef %3, ptr noundef %4, ptr noundef %5, ptr noundef %6, ptr noundef %7, ptr noundef %8, ptr noundef %9, ptr noundef %10, ptr noundef %11, ptr noundef %12, ptr noundef %13) local_unnamed_addr #0 {
  %15 = ptrtoint ptr %4 to i64
  %16 = lshr i64 %15, 1
  %17 = trunc i64 %16 to i8
  %18 = and i64 %15, 1
  %.not = icmp eq i64 %18, 0
  br i1 %.not, label %19, label %lean_dec.exit32

19:                                               ; preds = %14
  %20 = load i32, ptr %4, align 4, !tbaa !4
  %21 = icmp sgt i32 %20, 1
  br i1 %21, label %22, label %24, !prof !9

22:                                               ; preds = %19
  %23 = add nsw i32 %20, -1
  store i32 %23, ptr %4, align 4, !tbaa !4
  br label %lean_dec.exit32

24:                                               ; preds = %19
  %.not.i = icmp eq i32 %20, 0
  br i1 %.not.i, label %lean_dec.exit32, label %25

25:                                               ; preds = %24
  tail call void @lean_dec_ref_cold(ptr noundef nonnull %4) #6
  br label %lean_dec.exit32

lean_dec.exit32:                                  ; preds = %25, %24, %22, %14
  %26 = ptrtoint ptr %6 to i64
  %27 = lshr i64 %26, 1
  %28 = trunc i64 %27 to i8
  %29 = and i64 %26, 1
  %.not49 = icmp eq i64 %29, 0
  br i1 %.not49, label %30, label %lean_dec.exit31

30:                                               ; preds = %lean_dec.exit32
  %31 = load i32, ptr %6, align 4, !tbaa !4
  %32 = icmp sgt i32 %31, 1
  br i1 %32, label %33, label %35, !prof !9

33:                                               ; preds = %30
  %34 = add nsw i32 %31, -1
  store i32 %34, ptr %6, align 4, !tbaa !4
  br label %lean_dec.exit31

35:                                               ; preds = %30
  %.not.i33 = icmp eq i32 %31, 0
  br i1 %.not.i33, label %lean_dec.exit31, label %36

36:                                               ; preds = %35
  tail call void @lean_dec_ref_cold(ptr noundef nonnull %6) #6
  br label %lean_dec.exit31

lean_dec.exit31:                                  ; preds = %36, %35, %33, %lean_dec.exit32
  %37 = tail call ptr @l_Lean_Elab_elabModifiers___at___private_Lean_Elab_Inductive_0__Lean_Elab_Command_inductiveSyntaxToView___spec__2___lambda__2(ptr noundef %0, ptr noundef %1, ptr noundef %2, ptr noundef %3, i8 noundef zeroext %17, ptr noundef %5, i8 noundef zeroext %28, ptr noundef %7, ptr noundef %8, ptr noundef %9, ptr noundef %10, ptr noundef %11, ptr noundef %12, ptr noundef %13)
  %38 = ptrtoint ptr %12 to i64
  %39 = and i64 %38, 1
  %.not50 = icmp eq i64 %39, 0
  br i1 %.not50, label %40, label %lean_dec.exit30

40:                                               ; preds = %lean_dec.exit31
  %41 = load i32, ptr %12, align 4, !tbaa !4
  %42 = icmp sgt i32 %41, 1
  br i1 %42, label %43, label %45, !prof !9

43:                                               ; preds = %40
  %44 = add nsw i32 %41, -1
  store i32 %44, ptr %12, align 4, !tbaa !4
  br label %lean_dec.exit30

45:                                               ; preds = %40
  %.not.i35 = icmp eq i32 %41, 0
  br i1 %.not.i35, label %lean_dec.exit30, label %46

46:                                               ; preds = %45
  tail call void @lean_dec_ref_cold(ptr noundef nonnull %12) #6
  br label %lean_dec.exit30

lean_dec.exit30:                                  ; preds = %46, %45, %43, %lean_dec.exit31
  %47 = ptrtoint ptr %10 to i64
  %48 = and i64 %47, 1
  %.not51 = icmp eq i64 %48, 0
  br i1 %.not51, label %49, label %lean_dec.exit29

49:                                               ; preds = %lean_dec.exit30
  %50 = load i32, ptr %10, align 4, !tbaa !4
  %51 = icmp sgt i32 %50, 1
  br i1 %51, label %52, label %54, !prof !9

52:                                               ; preds = %49
  %53 = add nsw i32 %50, -1
  store i32 %53, ptr %10, align 4, !tbaa !4
  br label %lean_dec.exit29

54:                                               ; preds = %49
  %.not.i37 = icmp eq i32 %50, 0
  br i1 %.not.i37, label %lean_dec.exit29, label %55

55:                                               ; preds = %54
  tail call void @lean_dec_ref_cold(ptr noundef nonnull %10) #6
  br label %lean_dec.exit29

lean_dec.exit29:                                  ; preds = %55, %54, %52, %lean_dec.exit30
  %56 = ptrtoint ptr %9 to i64
  %57 = and i64 %56, 1
  %.not52 = icmp eq i64 %57, 0
  br i1 %.not52, label %58, label %lean_dec.exit28

58:                                               ; preds = %lean_dec.exit29
  %59 = load i32, ptr %9, align 4, !tbaa !4
  %60 = icmp sgt i32 %59, 1
  br i1 %60, label %61, label %63, !prof !9

61:                                               ; preds = %58
  %62 = add nsw i32 %59, -1
  store i32 %62, ptr %9, align 4, !tbaa !4
  br label %lean_dec.exit28

63:                                               ; preds = %58
  %.not.i39 = icmp eq i32 %59, 0
  br i1 %.not.i39, label %lean_dec.exit28, label %64

64:                                               ; preds = %63
  tail call void @lean_dec_ref_cold(ptr noundef nonnull %9) #6
  br label %lean_dec.exit28

lean_dec.exit28:                                  ; preds = %64, %63, %61, %lean_dec.exit29
  %65 = ptrtoint ptr %8 to i64
  %66 = and i64 %65, 1
  %.not53 = icmp eq i64 %66, 0
  br i1 %.not53, label %67, label %lean_dec.exit27

67:                                               ; preds = %lean_dec.exit28
  %68 = load i32, ptr %8, align 4, !tbaa !4
  %69 = icmp sgt i32 %68, 1
  br i1 %69, label %70, label %72, !prof !9

70:                                               ; preds = %67
  %71 = add nsw i32 %68, -1
  store i32 %71, ptr %8, align 4, !tbaa !4
  br label %lean_dec.exit27

72:                                               ; preds = %67
  %.not.i41 = icmp eq i32 %68, 0
  br i1 %.not.i41, label %lean_dec.exit27, label %73

73:                                               ; preds = %72
  tail call void @lean_dec_ref_cold(ptr noundef nonnull %8) #6
  br label %lean_dec.exit27

lean_dec.exit27:                                  ; preds = %73, %72, %70, %lean_dec.exit28
  %74 = ptrtoint ptr %5 to i64
  %75 = and i64 %74, 1
  %.not54 = icmp eq i64 %75, 0
  br i1 %.not54, label %76, label %lean_dec.exit26

76:                                               ; preds = %lean_dec.exit27
  %77 = load i32, ptr %5, align 4, !tbaa !4
  %78 = icmp sgt i32 %77, 1
  br i1 %78, label %79, label %81, !prof !9

79:                                               ; preds = %76
  %80 = add nsw i32 %77, -1
  store i32 %80, ptr %5, align 4, !tbaa !4
  br label %lean_dec.exit26

81:                                               ; preds = %76
  %.not.i43 = icmp eq i32 %77, 0
  br i1 %.not.i43, label %lean_dec.exit26, label %82

82:                                               ; preds = %81
  tail call void @lean_dec_ref_cold(ptr noundef nonnull %5) #6
  br label %lean_dec.exit26

lean_dec.exit26:                                  ; preds = %82, %81, %79, %lean_dec.exit27
  %83 = ptrtoint ptr %1 to i64
  %84 = and i64 %83, 1
  %.not55 = icmp eq i64 %84, 0
  br i1 %.not55, label %85, label %lean_dec.exit25

85:                                               ; preds = %lean_dec.exit26
  %86 = load i32, ptr %1, align 4, !tbaa !4
  %87 = icmp sgt i32 %86, 1
  br i1 %87, label %88, label %90, !prof !9

88:                                               ; preds = %85
  %89 = add nsw i32 %86, -1
  store i32 %89, ptr %1, align 4, !tbaa !4
  br label %lean_dec.exit25

90:                                               ; preds = %85
  %.not.i45 = icmp eq i32 %86, 0
  br i1 %.not.i45, label %lean_dec.exit25, label %91

91:                                               ; preds = %90
  tail call void @lean_dec_ref_cold(ptr noundef nonnull %1) #6
  br label %lean_dec.exit25

lean_dec.exit25:                                  ; preds = %91, %90, %88, %lean_dec.exit26
  %92 = ptrtoint ptr %0 to i64
  %93 = and i64 %92, 1
  %.not56 = icmp eq i64 %93, 0
  br i1 %.not56, label %94, label %lean_dec.exit

94:                                               ; preds = %lean_dec.exit25
  %95 = load i32, ptr %0, align 4, !tbaa !4
  %96 = icmp sgt i32 %95, 1
  br i1 %96, label %97, label %99, !prof !9

97:                                               ; preds = %94
  %98 = add nsw i32 %95, -1
  store i32 %98, ptr %0, align 4, !tbaa !4
  br label %lean_dec.exit

99:                                               ; preds = %94
  %.not.i47 = icmp eq i32 %95, 0
  br i1 %.not.i47, label %lean_dec.exit, label %100

100:                                              ; preds = %99
  tail call void @lean_dec_ref_cold(ptr noundef nonnull %0) #6
  br label %lean_dec.exit

lean_dec.exit:                                    ; preds = %100, %99, %97, %lean_dec.exit25
  ret ptr %37
}